target datalayout = "e-m:e-p270:32:32-p271:32:32-p272:64:64-i64:64-i128:128-f80:128-n8:16:32:64-S128"
target triple = "x86_64-pc-linux-gnu"

%struct.OSQPVectorf_ = type { ptr, i64 }
%struct.OSQPVectori_ = type { ptr, i64 }

; Function Attrs: nounwind uwtable
define ptr @OSQPVectorf_malloc(i64 noundef %0) #0 {
  %2 = alloca i64, align 8
  %3 = alloca ptr, align 8
  store i64 %0, ptr %2, align 8
  %4 = call noalias ptr @malloc(i64 noundef 16) #5
  store ptr %4, ptr %3, align 8
  %5 = load ptr, ptr %3, align 8
  %6 = icmp ne ptr %5, null
  br i1 %6, label %7, label %30

7:                                                ; preds = %1
  %8 = load i64, ptr %2, align 8
  %9 = load ptr, ptr %3, align 8
  %10 = getelementptr inbounds %struct.OSQPVectorf_, ptr %9, i32 0, i32 1
  store i64 %8, ptr %10, align 8
  %11 = load i64, ptr %2, align 8
  %12 = icmp ne i64 %11, 0
  br i1 %12, label %13, label %26

13:                                               ; preds = %7
  %14 = load i64, ptr %2, align 8
  %15 = mul i64 %14, 8
  %16 = call noalias ptr @malloc(i64 noundef %15) #5
  %17 = load ptr, ptr %3, align 8
  %18 = getelementptr inbounds %struct.OSQPVectorf_, ptr %17, i32 0, i32 0
  store ptr %16, ptr %18, align 8
  %19 = load ptr, ptr %3, align 8
  %20 = getelementptr inbounds %struct.OSQPVectorf_, ptr %19, i32 0, i32 0
  %21 = load ptr, ptr %20, align 8
  %22 = icmp ne ptr %21, null
  br i1 %22, label %25, label %23

23:                                               ; preds = %13
  %24 = load ptr, ptr %3, align 8
  call void @free(ptr noundef %24) #6
  store ptr null, ptr %3, align 8
  br label %25

25:                                               ; preds = %23, %13
  br label %29

26:                                               ; preds = %7
  %27 = load ptr, ptr %3, align 8
  %28 = getelementptr inbounds %struct.OSQPVectorf_, ptr %27, i32 0, i32 0
  store ptr null, ptr %28, align 8
  br label %29

29:                                               ; preds = %26, %25
  br label %30

30:                                               ; preds = %29, %1
  %31 = load ptr, ptr %3, align 8
  ret ptr %31
}

; Function Attrs: nounwind uwtable
define ptr @OSQPVectorf_subvector_byrows(ptr noundef %0, ptr noundef %1) #0 {
  %3 = alloca ptr, align 8
  %4 = alloca ptr, align 8
  %5 = alloca ptr, align 8
  %6 = alloca i64, align 8
  %7 = alloca i64, align 8
  %8 = alloca ptr, align 8
  %9 = alloca i64, align 8
  store ptr %0, ptr %4, align 8
  store ptr %1, ptr %5, align 8
  store i64 0, ptr %7, align 8
  store i64 0, ptr %6, align 8
  br label %10

10:                                               ; preds = %28, %2
  %11 = load i64, ptr %6, align 8
  %12 = load ptr, ptr %5, align 8
  %13 = getelementptr inbounds %struct.OSQPVectori_, ptr %12, i32 0, i32 1
  %14 = load i64, ptr %13, align 8
  %15 = icmp slt i64 %11, %14
  br i1 %15, label %16, label %31

16:                                               ; preds = %10
  %17 = load ptr, ptr %5, align 8
  %18 = getelementptr inbounds %struct.OSQPVectori_, ptr %17, i32 0, i32 0
  %19 = load ptr, ptr %18, align 8
  %20 = load i64, ptr %6, align 8
  %21 = getelementptr inbounds i64, ptr %19, i64 %20
  %22 = load i64, ptr %21, align 8
  %23 = icmp ne i64 %22, 0
  br i1 %23, label %24, label %27

24:                                               ; preds = %16
  %25 = load i64, ptr %7, align 8
  %26 = add nsw i64 %25, 1
  store i64 %26, ptr %7, align 8
  br label %27

27:                                               ; preds = %24, %16
  br label %28

28:                                               ; preds = %27
  %29 = load i64, ptr %6, align 8
  %30 = add nsw i64 %29, 1
  store i64 %30, ptr %6, align 8
  br label %10, !llvm.loop !10

31:                                               ; preds = %10
  %32 = load i64, ptr %7, align 8
  %33 = call ptr @OSQPVectorf_malloc(i64 noundef %32)
  store ptr %33, ptr %8, align 8
  %34 = load ptr, ptr %8, align 8
  %35 = icmp ne ptr %34, null
  br i1 %35, label %37, label %36

36:                                               ; preds = %31
  store ptr null, ptr %3, align 8
  br label %72

37:                                               ; preds = %31
  store i64 0, ptr %9, align 8
  store i64 0, ptr %6, align 8
  br label %38

38:                                               ; preds = %67, %37
  %39 = load i64, ptr %6, align 8
  %40 = load ptr, ptr %5, align 8
  %41 = getelementptr inbounds %struct.OSQPVectori_, ptr %40, i32 0, i32 1
  %42 = load i64, ptr %41, align 8
  %43 = icmp slt i64 %39, %42
  br i1 %43, label %44, label %70

44:                                               ; preds = %38
  %45 = load ptr, ptr %5, align 8
  %46 = getelementptr inbounds %struct.OSQPVectori_, ptr %45, i32 0, i32 0
  %47 = load ptr, ptr %46, align 8
  %48 = load i64, ptr %6, align 8
  %49 = getelementptr inbounds i64, ptr %47, i64 %48
  %50 = load i64, ptr %49, align 8
  %51 = icmp ne i64 %50, 0
  br i1 %51, label %52, label %66

52:                                               ; preds = %44
  %53 = load ptr, ptr %4, align 8
  %54 = getelementptr inbounds %struct.OSQPVectorf_, ptr %53, i32 0, i32 0
  %55 = load ptr, ptr %54, align 8
  %56 = load i64, ptr %6, align 8
  %57 = getelementptr inbounds double, ptr %55, i64 %56
  %58 = load double, ptr %57, align 8
  %59 = load ptr, ptr %8, align 8
  %60 = getelementptr inbounds %struct.OSQPVectorf_, ptr %59, i32 0, i32 0
  %61 = load ptr, ptr %60, align 8
  %62 = load i64, ptr %9, align 8
  %63 = getelementptr inbounds double, ptr %61, i64 %62
  store double %58, ptr %63, align 8
  %64 = load i64, ptr %9, align 8
  %65 = add nsw i64 %64, 1
  store i64 %65, ptr %9, align 8
  br label %66

66:                                               ; preds = %52, %44
  br label %67

67:                                               ; preds = %66
  %68 = load i64, ptr %6, align 8
  %69 = add nsw i64 %68, 1
  store i64 %69, ptr %6, align 8
  br label %38, !llvm.loop !11

70:                                               ; preds = %38
  %71 = load ptr, ptr %8, align 8
  store ptr %71, ptr %3, align 8
  br label %72

72:                                               ; preds = %70, %36
  %73 = load ptr, ptr %3, align 8
  ret ptr %73
}