; Function Attrs: nounwind uwtable
define noalias noundef ptr @OSQPVectorf_subvector_byrows(ptr nocapture noundef readonly %0, ptr nocapture noundef readonly %1) local_unnamed_addr #9 {
  %3 = getelementptr inbounds i8, ptr %1, i64 8
  %4 = load i64, ptr %3, align 8
  %5 = icmp sgt i64 %4, 0
  br i1 %5, label %.lr.ph, label %._crit_edge

.lr.ph:                                           ; preds = %2
  %6 = load ptr, ptr %1, align 8
  br label %7

7:                                                ; preds = %.lr.ph, %7
  %.02030 = phi i64 [ 0, %.lr.ph ], [ %spec.select, %7 ]
  %.02229 = phi i64 [ 0, %.lr.ph ], [ %11, %7 ]
  %8 = getelementptr inbounds i64, ptr %6, i64 %.02229
  %9 = load i64, ptr %8, align 8
  %.not26 = icmp ne i64 %9, 0
  %10 = zext i1 %.not26 to i64
  %spec.select = add nuw nsw i64 %.02030, %10
  %11 = add nuw nsw i64 %.02229, 1
  %exitcond.not = icmp eq i64 %11, %4
  br i1 %exitcond.not, label %._crit_edge, label %7, !llvm.loop !10

._crit_edge:                                      ; preds = %7, %2
  %.020.lcssa = phi i64 [ 0, %2 ], [ %spec.select, %7 ]
  %12 = tail call noalias dereferenceable_or_null(16) ptr @malloc(i64 noundef 16) #18
  %.not.i = icmp eq ptr %12, null
  br i1 %.not.i, label %OSQPVectorf_malloc.exit.thread, label %13

13:                                               ; preds = %._crit_edge
  %14 = getelementptr inbounds i8, ptr %12, i64 8
  store i64 %.020.lcssa, ptr %14, align 8
  %.not11.i = icmp eq i64 %.020.lcssa, 0
  br i1 %.not11.i, label %19, label %15

15:                                               ; preds = %13
  %16 = shl i64 %.020.lcssa, 3
  %17 = tail call noalias ptr @malloc(i64 noundef %16) #18
  store ptr %17, ptr %12, align 8
  %.not12.i = icmp eq ptr %17, null
  br i1 %.not12.i, label %18, label %OSQPVectorf_malloc.exit

18:                                               ; preds = %15
  tail call void @free(ptr noundef nonnull %12) #19
  br label %OSQPVectorf_malloc.exit.thread

19:                                               ; preds = %13
  store ptr null, ptr %12, align 8
  br label %OSQPVectorf_malloc.exit

OSQPVectorf_malloc.exit:                          ; preds = %15, %19
  %20 = phi ptr [ %17, %15 ], [ null, %19 ]
  br i1 %5, label %.lr.ph33.preheader, label %OSQPVectorf_malloc.exit.thread

.lr.ph33.preheader:                               ; preds = %OSQPVectorf_malloc.exit
  %21 = load ptr, ptr %1, align 8
  br label %.lr.ph33

.lr.ph33:                                         ; preds = %.lr.ph33.preheader, %30
  %.032 = phi i64 [ %.1, %30 ], [ 0, %.lr.ph33.preheader ]
  %.12331 = phi i64 [ %31, %30 ], [ 0, %.lr.ph33.preheader ]
  %22 = getelementptr inbounds i64, ptr %21, i64 %.12331
  %23 = load i64, ptr %22, align 8
  %.not25 = icmp eq i64 %23, 0
  br i1 %.not25, label %30, label %24

24:                                               ; preds = %.lr.ph33
  %25 = load ptr, ptr %0, align 8
  %26 = getelementptr inbounds double, ptr %25, i64 %.12331
  %27 = load double, ptr %26, align 8
  %28 = getelementptr inbounds double, ptr %20, i64 %.032
  store double %27, ptr %28, align 8
  %29 = add nsw i64 %.032, 1
  br label %30

30:                                               ; preds = %.lr.ph33, %24
  %.1 = phi i64 [ %29, %24 ], [ %.032, %.lr.ph33 ]
  %31 = add nuw nsw i64 %.12331, 1
  %32 = icmp slt i64 %31, %4
  br i1 %32, label %.lr.ph33, label %OSQPVectorf_malloc.exit.thread, !llvm.loop !11

OSQPVectorf_malloc.exit.thread:                   ; preds = %30, %OSQPVectorf_malloc.exit, %._crit_edge, %18
  %.019 = phi ptr [ null, %18 ], [ null, %._crit_edge ], [ %12, %OSQPVectorf_malloc.exit ], [ %12, %30 ]
  ret ptr %.019
}